; ModuleID = '20/19.c'
source_filename = "20/19.c"
target datalayout = "e-m:e-p270:32:32-p271:32:32-p272:64:64-i64:64-f80:128-n8:16:32:64-S128"
target triple = "x86_64-pc-linux-gnu"

@.str = private unnamed_addr constant [3 x i8] c"%c\00", align 1
@.str.1 = private unnamed_addr constant [2 x i8] c"\0A\00", align 1

; Function Attrs: noinline nounwind uwtable
define dso_local void @main() #0 {
  %1 = alloca i8, align 1
  %2 = alloca [100 x [50 x i8]], align 16
  %3 = alloca i32, align 4
  %4 = alloca i32, align 4
  %5 = alloca i32, align 4
  %6 = alloca i32, align 4
  %7 = alloca [100 x i32], align 16
  store i32 0, i32* %3, align 4
  store i32 0, i32* %4, align 4
  store i32 0, i32* %5, align 4
  br label %8

8:                                                ; preds = %25, %0
  %9 = load i32, i32* %3, align 4
  %10 = sext i32 %9 to i64
  %11 = getelementptr inbounds [100 x [50 x i8]], [100 x [50 x i8]]* %2, i64 0, i64 %10
  %12 = getelementptr inbounds [50 x i8], [50 x i8]* %11, i64 0, i64 0
  %13 = call i32 (i8*, ...) bitcast (i32 (...)* @gets to i32 (i8*, ...)*)(i8* %12)
  %14 = load i32, i32* %3, align 4
  %15 = sext i32 %14 to i64
  %16 = getelementptr inbounds [100 x [50 x i8]], [100 x [50 x i8]]* %2, i64 0, i64 %15
  %17 = getelementptr inbounds [50 x i8], [50 x i8]* %16, i64 0, i64 0
  %18 = call i64 @strlen(i8* %17) #3
  %19 = trunc i64 %18 to i32
  %20 = load i32, i32* %3, align 4
  %21 = sext i32 %20 to i64
  %22 = getelementptr inbounds [100 x i32], [100 x i32]* %7, i64 0, i64 %21
  store i32 %19, i32* %22, align 4
  %23 = load i32, i32* %3, align 4
  %24 = add nsw i32 %23, 1
  store i32 %24, i32* %3, align 4
  br label %25

25:                                               ; preds = %8
  %26 = load i32, i32* %3, align 4
  %27 = sub nsw i32 %26, 1
  %28 = sext i32 %27 to i64
  %29 = getelementptr inbounds [100 x [50 x i8]], [100 x [50 x i8]]* %2, i64 0, i64 %28
  %30 = getelementptr inbounds [50 x i8], [50 x i8]* %29, i64 0, i64 0
  %31 = load i8, i8* %30, align 2
  %32 = sext i8 %31 to i32
  %33 = icmp ne i32 %32, 0
  br i1 %33, label %8, label %34

34:                                               ; preds = %25
  %35 = load i32, i32* %3, align 4
  %36 = sub nsw i32 %35, 1
  store i32 %36, i32* %6, align 4
  store i32 0, i32* %3, align 4
  br label %37

37:                                               ; preds = %150, %34
  %38 = load i32, i32* %3, align 4
  %39 = load i32, i32* %6, align 4
  %40 = icmp slt i32 %38, %39
  br i1 %40, label %41, label %153

41:                                               ; preds = %37
  store i32 0, i32* %5, align 4
  %42 = load i32, i32* %3, align 4
  %43 = sext i32 %42 to i64
  %44 = getelementptr inbounds [100 x [50 x i8]], [100 x [50 x i8]]* %2, i64 0, i64 %43
  %45 = getelementptr inbounds [50 x i8], [50 x i8]* %44, i64 0, i64 0
  %46 = load i8, i8* %45, align 2
  store i8 %46, i8* %1, align 1
  store i32 1, i32* %4, align 4
  br label %47

47:                                               ; preds = %77, %41
  %48 = load i32, i32* %4, align 4
  %49 = load i32, i32* %3, align 4
  %50 = sext i32 %49 to i64
  %51 = getelementptr inbounds [100 x i32], [100 x i32]* %7, i64 0, i64 %50
  %52 = load i32, i32* %51, align 4
  %53 = sub nsw i32 %52, 4
  %54 = icmp slt i32 %48, %53
  br i1 %54, label %55, label %80

55:                                               ; preds = %47
  %56 = load i32, i32* %3, align 4
  %57 = sext i32 %56 to i64
  %58 = getelementptr inbounds [100 x [50 x i8]], [100 x [50 x i8]]* %2, i64 0, i64 %57
  %59 = load i32, i32* %4, align 4
  %60 = sext i32 %59 to i64
  %61 = getelementptr inbounds [50 x i8], [50 x i8]* %58, i64 0, i64 %60
  %62 = load i8, i8* %61, align 1
  %63 = sext i8 %62 to i32
  %64 = load i8, i8* %1, align 1
  %65 = sext i8 %64 to i32
  %66 = icmp sgt i32 %63, %65
  br i1 %66, label %67, label %76

67:                                               ; preds = %55
  %68 = load i32, i32* %3, align 4
  %69 = sext i32 %68 to i64
  %70 = getelementptr inbounds [100 x [50 x i8]], [100 x [50 x i8]]* %2, i64 0, i64 %69
  %71 = load i32, i32* %4, align 4
  %72 = sext i32 %71 to i64
  %73 = getelementptr inbounds [50 x i8], [50 x i8]* %70, i64 0, i64 %72
  %74 = load i8, i8* %73, align 1
  store i8 %74, i8* %1, align 1
  %75 = load i32, i32* %4, align 4
  store i32 %75, i32* %5, align 4
  br label %76

76:                                               ; preds = %67, %55
  br label %77

77:                                               ; preds = %76
  %78 = load i32, i32* %4, align 4
  %79 = add nsw i32 %78, 1
  store i32 %79, i32* %4, align 4
  br label %47

80:                                               ; preds = %47
  store i32 0, i32* %4, align 4
  br label %81

81:                                               ; preds = %95, %80
  %82 = load i32, i32* %4, align 4
  %83 = load i32, i32* %5, align 4
  %84 = icmp sle i32 %82, %83
  br i1 %84, label %85, label %98

85:                                               ; preds = %81
  %86 = load i32, i32* %3, align 4
  %87 = sext i32 %86 to i64
  %88 = getelementptr inbounds [100 x [50 x i8]], [100 x [50 x i8]]* %2, i64 0, i64 %87
  %89 = load i32, i32* %4, align 4
  %90 = sext i32 %89 to i64
  %91 = getelementptr inbounds [50 x i8], [50 x i8]* %88, i64 0, i64 %90
  %92 = load i8, i8* %91, align 1
  %93 = sext i8 %92 to i32
  %94 = call i32 (i8*, ...) @printf(i8* getelementptr inbounds ([3 x i8], [3 x i8]* @.str, i64 0, i64 0), i32 %93)
  br label %95

95:                                               ; preds = %85
  %96 = load i32, i32* %4, align 4
  %97 = add nsw i32 %96, 1
  store i32 %97, i32* %4, align 4
  br label %81

98:                                               ; preds = %81
  %99 = load i32, i32* %3, align 4
  %100 = sext i32 %99 to i64
  %101 = getelementptr inbounds [100 x i32], [100 x i32]* %7, i64 0, i64 %100
  %102 = load i32, i32* %101, align 4
  %103 = sub nsw i32 %102, 3
  store i32 %103, i32* %4, align 4
  br label %104

104:                                              ; preds = %121, %98
  %105 = load i32, i32* %4, align 4
  %106 = load i32, i32* %3, align 4
  %107 = sext i32 %106 to i64
  %108 = getelementptr inbounds [100 x i32], [100 x i32]* %7, i64 0, i64 %107
  %109 = load i32, i32* %108, align 4
  %110 = icmp slt i32 %105, %109
  br i1 %110, label %111, label %124

111:                                              ; preds = %104
  %112 = load i32, i32* %3, align 4
  %113 = sext i32 %112 to i64
  %114 = getelementptr inbounds [100 x [50 x i8]], [100 x [50 x i8]]* %2, i64 0, i64 %113
  %115 = load i32, i32* %4, align 4
  %116 = sext i32 %115 to i64
  %117 = getelementptr inbounds [50 x i8], [50 x i8]* %114, i64 0, i64 %116
  %118 = load i8, i8* %117, align 1
  %119 = sext i8 %118 to i32
  %120 = call i32 (i8*, ...) @printf(i8* getelementptr inbounds ([3 x i8], [3 x i8]* @.str, i64 0, i64 0), i32 %119)
  br label %121

121:                                              ; preds = %111
  %122 = load i32, i32* %4, align 4
  %123 = add nsw i32 %122, 1
  store i32 %123, i32* %4, align 4
  br label %104

124:                                              ; preds = %104
  %125 = load i32, i32* %5, align 4
  %126 = add nsw i32 %125, 1
  store i32 %126, i32* %4, align 4
  br label %127

127:                                              ; preds = %145, %124
  %128 = load i32, i32* %4, align 4
  %129 = load i32, i32* %3, align 4
  %130 = sext i32 %129 to i64
  %131 = getelementptr inbounds [100 x i32], [100 x i32]* %7, i64 0, i64 %130
  %132 = load i32, i32* %131, align 4
  %133 = sub nsw i32 %132, 4
  %134 = icmp slt i32 %128, %133
  br i1 %134, label %135, label %148

135:                                              ; preds = %127
  %136 = load i32, i32* %3, align 4
  %137 = sext i32 %136 to i64
  %138 = getelementptr inbounds [100 x [50 x i8]], [100 x [50 x i8]]* %2, i64 0, i64 %137
  %139 = load i32, i32* %4, align 4
  %140 = sext i32 %139 to i64
  %141 = getelementptr inbounds [50 x i8], [50 x i8]* %138, i64 0, i64 %140
  %142 = load i8, i8* %141, align 1
  %143 = sext i8 %142 to i32
  %144 = call i32 (i8*, ...) @printf(i8* getelementptr inbounds ([3 x i8], [3 x i8]* @.str, i64 0, i64 0), i32 %143)
  br label %145

145:                                              ; preds = %135
  %146 = load i32, i32* %4, align 4
  %147 = add nsw i32 %146, 1
  store i32 %147, i32* %4, align 4
  br label %127

148:                                              ; preds = %127
  %149 = call i32 (i8*, ...) @printf(i8* getelementptr inbounds ([2 x i8], [2 x i8]* @.str.1, i64 0, i64 0))
  br label %150

150:                                              ; preds = %148
  %151 = load i32, i32* %3, align 4
  %152 = add nsw i32 %151, 1
  store i32 %152, i32* %3, align 4
  br label %37

153:                                              ; preds = %37
  ret void
}

declare dso_local i32 @gets(...) #1

; Function Attrs: nounwind readonly
declare dso_local i64 @strlen(i8*) #2

declare dso_local i32 @printf(i8*, ...) #1


!llvm.module.flags = !{!0}
!llvm.ident = !{!1}

!0 = !{i32 1, !"wchar_size", i32 4}
!1 = !{!"clang version 10.0.0-4ubuntu1 "}
